target datalayout = "e-m:e-p270:32:32-p271:32:32-p272:64:64-i64:64-i128:128-f80:128-n8:16:32:64-S128"
target triple = "x86_64-pc-linux-gnu"

%"class.cv::Size_" = type { i32, i32 }
%"class.cv::detail::tracking::contrib_feature::CvFeatureEvaluator" = type { ptr, i32, i32, i32, %"class.cv::Size_", ptr, %"class.cv::Mat" }
%"class.cv::Mat" = type { i32, i32, i32, i32, ptr, ptr, ptr, ptr, ptr, ptr, %"struct.cv::MatSize", %"struct.cv::MatStep" }
%"struct.cv::MatSize" = type { ptr }
%"struct.cv::MatStep" = type { ptr, [2 x i64] }
%"class.cv::detail::tracking::contrib_feature::CvHaarEvaluator" = type { %"class.cv::detail::tracking::contrib_feature::CvFeatureEvaluator", i8, %"class.cv::Mat", %"class.std::vector", %"class.cv::Mat" }
%"class.std::vector" = type { %"struct.std::_Vector_base" }
%"struct.std::_Vector_base" = type { %"struct.std::_Vector_base<cv::detail::tracking::contrib_feature::CvHaarEvaluator::FeatureHaar, std::allocator<cv::detail::tracking::contrib_feature::CvHaarEvaluator::FeatureHaar>>::_Vector_impl" }
%"struct.std::_Vector_base<cv::detail::tracking::contrib_feature::CvHaarEvaluator::FeatureHaar, std::allocator<cv::detail::tracking::contrib_feature::CvHaarEvaluator::FeatureHaar>>::_Vector_impl" = type { %"struct.std::_Vector_base<cv::detail::tracking::contrib_feature::CvHaarEvaluator::FeatureHaar, std::allocator<cv::detail::tracking::contrib_feature::CvHaarEvaluator::FeatureHaar>>::_Vector_impl_data" }
%"struct.std::_Vector_base<cv::detail::tracking::contrib_feature::CvHaarEvaluator::FeatureHaar, std::allocator<cv::detail::tracking::contrib_feature::CvHaarEvaluator::FeatureHaar>>::_Vector_impl_data" = type { ptr, ptr, ptr }
%"class.cv::detail::tracking::contrib_feature::CvHaarEvaluator::FeatureHaar" = type { i32, i32, %"class.std::vector.31", float, float, %"class.std::vector.36", %"class.cv::Size_", %"class.cv::Size_", float, float, %"class.std::vector.36", %"class.std::vector.31" }
%"class.std::vector.36" = type { %"struct.std::_Vector_base.37" }
%"struct.std::_Vector_base.37" = type { %"struct.std::_Vector_base<cv::Rect_<int>, std::allocator<cv::Rect_<int>>>::_Vector_impl" }
%"struct.std::_Vector_base<cv::Rect_<int>, std::allocator<cv::Rect_<int>>>::_Vector_impl" = type { %"struct.std::_Vector_base<cv::Rect_<int>, std::allocator<cv::Rect_<int>>>::_Vector_impl_data" }
%"struct.std::_Vector_base<cv::Rect_<int>, std::allocator<cv::Rect_<int>>>::_Vector_impl_data" = type { ptr, ptr, ptr }
%"class.std::vector.31" = type { %"struct.std::_Vector_base.32" }
%"struct.std::_Vector_base.32" = type { %"struct.std::_Vector_base<float, std::allocator<float>>::_Vector_impl" }
%"struct.std::_Vector_base<float, std::allocator<float>>::_Vector_impl" = type { %"struct.std::_Vector_base<float, std::allocator<float>>::_Vector_impl_data" }
%"struct.std::_Vector_base<float, std::allocator<float>>::_Vector_impl_data" = type { ptr, ptr, ptr }
%"class.cv::Rect_" = type { i32, i32, i32, i32 }

@.str.34 = private unnamed_addr constant [74 x i8] c"vector::_M_range_check: __n (which is %zu) >= this->size() (which is %zu)\00", align 1

; Function Attrs: mustprogress nounwind uwtable
define linkonce_odr hidden noundef i64 @_ZNKSt6vectorIN2cv6detail8tracking15contrib_feature15CvHaarEvaluator11FeatureHaarESaIS5_EE4sizeEv(ptr noundef nonnull align 8 dereferenceable(24) %0) #6 comdat align 2 {
  %2 = alloca ptr, align 8
  store ptr %0, ptr %2, align 8, !tbaa !112
  %3 = load ptr, ptr %2, align 8
  %4 = getelementptr inbounds nuw %"struct.std::_Vector_base", ptr %3, i32 0, i32 0
  %5 = getelementptr inbounds nuw %"struct.std::_Vector_base<cv::detail::tracking::contrib_feature::CvHaarEvaluator::FeatureHaar, std::allocator<cv::detail::tracking::contrib_feature::CvHaarEvaluator::FeatureHaar>>::_Vector_impl_data", ptr %4, i32 0, i32 1
  %6 = load ptr, ptr %5, align 8, !tbaa !119
  %7 = getelementptr inbounds nuw %"struct.std::_Vector_base", ptr %3, i32 0, i32 0
  %8 = getelementptr inbounds nuw %"struct.std::_Vector_base<cv::detail::tracking::contrib_feature::CvHaarEvaluator::FeatureHaar, std::allocator<cv::detail::tracking::contrib_feature::CvHaarEvaluator::FeatureHaar>>::_Vector_impl_data", ptr %7, i32 0, i32 0
  %9 = load ptr, ptr %8, align 8, !tbaa !118
  %10 = ptrtoint ptr %6 to i64
  %11 = ptrtoint ptr %9 to i64
  %12 = sub i64 %10, %11
  %13 = sdiv exact i64 %12, 136
  ret i64 %13
}

; Function Attrs: mustprogress nounwind uwtable
define linkonce_odr hidden noundef nonnull align 4 dereferenceable(4) ptr @_ZNKSt6vectorIfSaIfEEixEm(ptr noundef nonnull align 8 dereferenceable(24) %0, i64 noundef %1) #6 comdat align 2 {
  %3 = alloca ptr, align 8
  %4 = alloca i64, align 8
  store ptr %0, ptr %3, align 8, !tbaa !145
  store i64 %1, ptr %4, align 8, !tbaa !80
  %5 = load ptr, ptr %3, align 8
  %6 = getelementptr inbounds nuw %"struct.std::_Vector_base.32", ptr %5, i32 0, i32 0
  %7 = getelementptr inbounds nuw %"struct.std::_Vector_base<float, std::allocator<float>>::_Vector_impl_data", ptr %6, i32 0, i32 0
  %8 = load ptr, ptr %7, align 8, !tbaa !160
  %9 = load i64, ptr %4, align 8, !tbaa !80
  %10 = getelementptr inbounds nuw float, ptr %8, i64 %9
  ret ptr %10
}

; Function Attrs: mustprogress nounwind uwtable
define linkonce_odr hidden noundef nonnull align 4 dereferenceable(16) ptr @_ZNKSt6vectorIN2cv5Rect_IiEESaIS2_EEixEm(ptr noundef nonnull align 8 dereferenceable(24) %0, i64 noundef %1) #6 comdat align 2 {
  %3 = alloca ptr, align 8
  %4 = alloca i64, align 8
  store ptr %0, ptr %3, align 8, !tbaa !147
  store i64 %1, ptr %4, align 8, !tbaa !80
  %5 = load ptr, ptr %3, align 8
  %6 = getelementptr inbounds nuw %"struct.std::_Vector_base.37", ptr %5, i32 0, i32 0
  %7 = getelementptr inbounds nuw %"struct.std::_Vector_base<cv::Rect_<int>, std::allocator<cv::Rect_<int>>>::_Vector_impl_data", ptr %6, i32 0, i32 0
  %8 = load ptr, ptr %7, align 8, !tbaa !162
  %9 = load i64, ptr %4, align 8, !tbaa !80
  %10 = getelementptr inbounds nuw %"class.cv::Rect_", ptr %8, i64 %9
  ret ptr %10
}

; Function Attrs: mustprogress nounwind uwtable
define linkonce_odr hidden noundef nonnull align 8 dereferenceable(136) ptr @_ZNSt6vectorIN2cv6detail8tracking15contrib_feature15CvHaarEvaluator11FeatureHaarESaIS5_EEixEm(ptr noundef nonnull align 8 dereferenceable(24) %0, i64 noundef %1) #6 comdat align 2 {
  %3 = alloca ptr, align 8
  %4 = alloca i64, align 8
  store ptr %0, ptr %3, align 8, !tbaa !112
  store i64 %1, ptr %4, align 8, !tbaa !80
  %5 = load ptr, ptr %3, align 8
  %6 = getelementptr inbounds nuw %"struct.std::_Vector_base", ptr %5, i32 0, i32 0
  %7 = getelementptr inbounds nuw %"struct.std::_Vector_base<cv::detail::tracking::contrib_feature::CvHaarEvaluator::FeatureHaar, std::allocator<cv::detail::tracking::contrib_feature::CvHaarEvaluator::FeatureHaar>>::_Vector_impl_data", ptr %6, i32 0, i32 0
  %8 = load ptr, ptr %7, align 8, !tbaa !118
  %9 = load i64, ptr %4, align 8, !tbaa !80
  %10 = getelementptr inbounds nuw %"class.cv::detail::tracking::contrib_feature::CvHaarEvaluator::FeatureHaar", ptr %8, i64 %9
  ret ptr %10
}

; Function Attrs: mustprogress uwtable
define linkonce_odr hidden void @_ZNKSt6vectorIN2cv6detail8tracking15contrib_feature15CvHaarEvaluator11FeatureHaarESaIS5_EE14_M_range_checkEm(ptr noundef nonnull align 8 dereferenceable(24) %0, i64 noundef %1) #4 comdat align 2 {
  %3 = alloca ptr, align 8
  %4 = alloca i64, align 8
  store ptr %0, ptr %3, align 8, !tbaa !112
  store i64 %1, ptr %4, align 8, !tbaa !80
  %5 = load ptr, ptr %3, align 8
  %6 = load i64, ptr %4, align 8, !tbaa !80
  %7 = call noundef i64 @_ZNKSt6vectorIN2cv6detail8tracking15contrib_feature15CvHaarEvaluator11FeatureHaarESaIS5_EE4sizeEv(ptr noundef nonnull align 8 dereferenceable(24) %5) #3
  %8 = icmp uge i64 %6, %7
  br i1 %8, label %9, label %12

9:                                                ; preds = %2
  %10 = load i64, ptr %4, align 8, !tbaa !80
  %11 = call noundef i64 @_ZNKSt6vectorIN2cv6detail8tracking15contrib_feature15CvHaarEvaluator11FeatureHaarESaIS5_EE4sizeEv(ptr noundef nonnull align 8 dereferenceable(24) %5) #3
  call void (ptr, ...) @_ZSt24__throw_out_of_range_fmtPKcz(ptr noundef @.str.34, i64 noundef %10, i64 noundef %11) #20
  unreachable

12:                                               ; preds = %2
  ret void
}

; Function Attrs: mustprogress uwtable
define hidden noundef zeroext i1 @_ZNK2cv6detail8tracking15contrib_feature15CvHaarEvaluator11FeatureHaar4evalERKNS_3MatENS_5Rect_IiEEPf(ptr noundef nonnull align 8 dereferenceable(136) %0, ptr noundef nonnull align 8 dereferenceable(96) %1, i64 %2, i64 %3, ptr noundef %4) #4 align 2 {
  %6 = alloca %"class.cv::Rect_", align 4
  %7 = alloca ptr, align 8
  %8 = alloca ptr, align 8
  %9 = alloca ptr, align 8
  %10 = alloca i32, align 4
  %11 = alloca %"class.cv::Rect_", align 4
  %12 = getelementptr inbounds nuw { i64, i64 }, ptr %6, i32 0, i32 0
  store i64 %2, ptr %12, align 4
  %13 = getelementptr inbounds nuw { i64, i64 }, ptr %6, i32 0, i32 1
  store i64 %3, ptr %13, align 4
  store ptr %0, ptr %7, align 8, !tbaa !123
  store ptr %1, ptr %8, align 8, !tbaa !68
  store ptr %4, ptr %9, align 8, !tbaa !125
  %14 = load ptr, ptr %7, align 8
  %15 = load ptr, ptr %9, align 8, !tbaa !125
  store float 0.000000e+00, ptr %15, align 4, !tbaa !76
  call void @llvm.lifetime.start.p0(i64 4, ptr %10) #3
  store i32 0, ptr %10, align 4, !tbaa !42
  br label %16

16:                                               ; preds = %61, %5
  %17 = load i32, ptr %10, align 4, !tbaa !42
  %18 = getelementptr inbounds nuw %"class.cv::detail::tracking::contrib_feature::CvHaarEvaluator::FeatureHaar", ptr %14, i32 0, i32 1
  %19 = load i32, ptr %18, align 4, !tbaa !127
  %20 = icmp slt i32 %17, %19
  br i1 %20, label %22, label %21

21:                                               ; preds = %16
  call void @llvm.lifetime.end.p0(i64 4, ptr %10) #3
  br label %64

22:                                               ; preds = %16
  %23 = load ptr, ptr %8, align 8, !tbaa !68
  %24 = getelementptr inbounds nuw %"class.cv::detail::tracking::contrib_feature::CvHaarEvaluator::FeatureHaar", ptr %14, i32 0, i32 5
  %25 = load i32, ptr %10, align 4, !tbaa !42
  %26 = sext i32 %25 to i64
  %27 = call noundef nonnull align 4 dereferenceable(16) ptr @_ZNKSt6vectorIN2cv5Rect_IiEESaIS2_EEixEm(ptr noundef nonnull align 8 dereferenceable(24) %24, i64 noundef %26) #3
  %28 = getelementptr inbounds nuw %"class.cv::Rect_", ptr %27, i32 0, i32 0
  %29 = load i32, ptr %28, align 4, !tbaa !138
  %30 = getelementptr inbounds nuw %"class.cv::detail::tracking::contrib_feature::CvHaarEvaluator::FeatureHaar", ptr %14, i32 0, i32 5
  %31 = load i32, ptr %10, align 4, !tbaa !42
  %32 = sext i32 %31 to i64
  %33 = call noundef nonnull align 4 dereferenceable(16) ptr @_ZNKSt6vectorIN2cv5Rect_IiEESaIS2_EEixEm(ptr noundef nonnull align 8 dereferenceable(24) %30, i64 noundef %32) #3
  %34 = getelementptr inbounds nuw %"class.cv::Rect_", ptr %33, i32 0, i32 1
  %35 = load i32, ptr %34, align 4, !tbaa !140
  %36 = getelementptr inbounds nuw %"class.cv::detail::tracking::contrib_feature::CvHaarEvaluator::FeatureHaar", ptr %14, i32 0, i32 5
  %37 = load i32, ptr %10, align 4, !tbaa !42
  %38 = sext i32 %37 to i64
  %39 = call noundef nonnull align 4 dereferenceable(16) ptr @_ZNKSt6vectorIN2cv5Rect_IiEESaIS2_EEixEm(ptr noundef nonnull align 8 dereferenceable(24) %36, i64 noundef %38) #3
  %40 = getelementptr inbounds nuw %"class.cv::Rect_", ptr %39, i32 0, i32 2
  %41 = load i32, ptr %40, align 4, !tbaa !141
  %42 = getelementptr inbounds nuw %"class.cv::detail::tracking::contrib_feature::CvHaarEvaluator::FeatureHaar", ptr %14, i32 0, i32 5
  %43 = load i32, ptr %10, align 4, !tbaa !42
  %44 = sext i32 %43 to i64
  %45 = call noundef nonnull align 4 dereferenceable(16) ptr @_ZNKSt6vectorIN2cv5Rect_IiEESaIS2_EEixEm(ptr noundef nonnull align 8 dereferenceable(24) %42, i64 noundef %44) #3
  %46 = getelementptr inbounds nuw %"class.cv::Rect_", ptr %45, i32 0, i32 3
  %47 = load i32, ptr %46, align 4, !tbaa !142
  call void @_ZN2cv5Rect_IiEC2Eiiii(ptr noundef nonnull align 4 dereferenceable(16) %11, i32 noundef %29, i32 noundef %35, i32 noundef %41, i32 noundef %47)
  %48 = getelementptr inbounds nuw { i64, i64 }, ptr %11, i32 0, i32 0
  %49 = load i64, ptr %48, align 4
  %50 = getelementptr inbounds nuw { i64, i64 }, ptr %11, i32 0, i32 1
  %51 = load i64, ptr %50, align 4
  %52 = call noundef float @_ZNK2cv6detail8tracking15contrib_feature15CvHaarEvaluator11FeatureHaar6getSumERKNS_3MatENS_5Rect_IiEE(ptr noundef nonnull align 8 dereferenceable(136) %14, ptr noundef nonnull align 8 dereferenceable(96) %23, i64 %49, i64 %51)
  %53 = getelementptr inbounds nuw %"class.cv::detail::tracking::contrib_feature::CvHaarEvaluator::FeatureHaar", ptr %14, i32 0, i32 11
  %54 = load i32, ptr %10, align 4, !tbaa !42
  %55 = sext i32 %54 to i64
  %56 = call noundef nonnull align 4 dereferenceable(4) ptr @_ZNKSt6vectorIfSaIfEEixEm(ptr noundef nonnull align 8 dereferenceable(24) %53, i64 noundef %55) #3
  %57 = load float, ptr %56, align 4, !tbaa !76
  %58 = load ptr, ptr %9, align 8, !tbaa !125
  %59 = load float, ptr %58, align 4, !tbaa !76
  %60 = call float @llvm.fmuladd.f32(float %52, float %57, float %59)
  store float %60, ptr %58, align 4, !tbaa !76
  br label %61

61:                                               ; preds = %22
  %62 = load i32, ptr %10, align 4, !tbaa !42
  %63 = add nsw i32 %62, 1
  store i32 %63, ptr %10, align 4, !tbaa !42
  br label %16, !llvm.loop !143

64:                                               ; preds = %21
  ret i1 true
}

; Function Attrs: inlinehint mustprogress nounwind uwtable
define linkonce_odr hidden void @_ZN2cv5Rect_IiEC2Eiiii(ptr noundef nonnull align 4 dereferenceable(16) %0, i32 noundef %1, i32 noundef %2, i32 noundef %3, i32 noundef %4) unnamed_addr #10 comdat align 2 {
  %6 = alloca ptr, align 8
  %7 = alloca i32, align 4
  %8 = alloca i32, align 4
  %9 = alloca i32, align 4
  %10 = alloca i32, align 4
  store ptr %0, ptr %6, align 8, !tbaa !144
  store i32 %1, ptr %7, align 4, !tbaa !42
  store i32 %2, ptr %8, align 4, !tbaa !42
  store i32 %3, ptr %9, align 4, !tbaa !42
  store i32 %4, ptr %10, align 4, !tbaa !42
  %11 = load ptr, ptr %6, align 8
  %12 = getelementptr inbounds nuw %"class.cv::Rect_", ptr %11, i32 0, i32 0
  %13 = load i32, ptr %7, align 4, !tbaa !42
  store i32 %13, ptr %12, align 4, !tbaa !138
  %14 = getelementptr inbounds nuw %"class.cv::Rect_", ptr %11, i32 0, i32 1
  %15 = load i32, ptr %8, align 4, !tbaa !42
  store i32 %15, ptr %14, align 4, !tbaa !140
  %16 = getelementptr inbounds nuw %"class.cv::Rect_", ptr %11, i32 0, i32 2
  %17 = load i32, ptr %9, align 4, !tbaa !42
  store i32 %17, ptr %16, align 4, !tbaa !141
  %18 = getelementptr inbounds nuw %"class.cv::Rect_", ptr %11, i32 0, i32 3
  %19 = load i32, ptr %10, align 4, !tbaa !42
  store i32 %19, ptr %18, align 4, !tbaa !142
  ret void
}

; Function Attrs: mustprogress uwtable
define linkonce_odr hidden noundef nonnull align 8 dereferenceable(136) ptr @_ZNSt6vectorIN2cv6detail8tracking15contrib_feature15CvHaarEvaluator11FeatureHaarESaIS5_EE2atEm(ptr noundef nonnull align 8 dereferenceable(24) %0, i64 noundef %1) #4 comdat align 2 {
  %3 = alloca ptr, align 8
  %4 = alloca i64, align 8
  store ptr %0, ptr %3, align 8, !tbaa !112
  store i64 %1, ptr %4, align 8, !tbaa !80
  %5 = load ptr, ptr %3, align 8
  %6 = load i64, ptr %4, align 8, !tbaa !80
  call void @_ZNKSt6vectorIN2cv6detail8tracking15contrib_feature15CvHaarEvaluator11FeatureHaarESaIS5_EE14_M_range_checkEm(ptr noundef nonnull align 8 dereferenceable(24) %5, i64 noundef %6)
  %7 = load i64, ptr %4, align 8, !tbaa !80
  %8 = call noundef nonnull align 8 dereferenceable(136) ptr @_ZNSt6vectorIN2cv6detail8tracking15contrib_feature15CvHaarEvaluator11FeatureHaarESaIS5_EEixEm(ptr noundef nonnull align 8 dereferenceable(24) %5, i64 noundef %7) #3
  ret ptr %8
}

; Function Attrs: mustprogress uwtable
define hidden noundef float @_ZN2cv6detail8tracking15contrib_feature15CvHaarEvaluatorclEii(ptr noundef nonnull align 8 dereferenceable(360) %0, i32 noundef %1, i32 noundef %2) unnamed_addr #4 align 2 {
  %4 = alloca ptr, align 8
  %5 = alloca i32, align 4
  %6 = alloca i32, align 4
  %7 = alloca float, align 4
  %8 = alloca %"class.cv::Rect_", align 4
  store ptr %0, ptr %4, align 8, !tbaa !81
  store i32 %1, ptr %5, align 4, !tbaa !42
  store i32 %2, ptr %6, align 4, !tbaa !42
  %9 = load ptr, ptr %4, align 8
  call void @llvm.lifetime.start.p0(i64 4, ptr %7) #3
  %10 = getelementptr inbounds nuw %"class.cv::detail::tracking::contrib_feature::CvHaarEvaluator", ptr %9, i32 0, i32 3
  %11 = load i32, ptr %5, align 4, !tbaa !42
  %12 = sext i32 %11 to i64
  %13 = call noundef nonnull align 8 dereferenceable(136) ptr @_ZNSt6vectorIN2cv6detail8tracking15contrib_feature15CvHaarEvaluator11FeatureHaarESaIS5_EE2atEm(ptr noundef nonnull align 8 dereferenceable(24) %10, i64 noundef %12)
  %14 = getelementptr inbounds nuw %"class.cv::detail::tracking::contrib_feature::CvHaarEvaluator", ptr %9, i32 0, i32 2
  %15 = getelementptr inbounds nuw %"class.cv::detail::tracking::contrib_feature::CvFeatureEvaluator", ptr %9, i32 0, i32 4
  %16 = getelementptr inbounds nuw %"class.cv::Size_", ptr %15, i32 0, i32 0
  %17 = load i32, ptr %16, align 4, !tbaa !72
  %18 = getelementptr inbounds nuw %"class.cv::detail::tracking::contrib_feature::CvFeatureEvaluator", ptr %9, i32 0, i32 4
  %19 = getelementptr inbounds nuw %"class.cv::Size_", ptr %18, i32 0, i32 1
  %20 = load i32, ptr %19, align 4, !tbaa !74
  call void @_ZN2cv5Rect_IiEC2Eiiii(ptr noundef nonnull align 4 dereferenceable(16) %8, i32 noundef 0, i32 noundef 0, i32 noundef %17, i32 noundef %20)
  %21 = getelementptr inbounds nuw { i64, i64 }, ptr %8, i32 0, i32 0
  %22 = load i64, ptr %21, align 4
  %23 = getelementptr inbounds nuw { i64, i64 }, ptr %8, i32 0, i32 1
  %24 = load i64, ptr %23, align 4
  %25 = call noundef zeroext i1 @_ZNK2cv6detail8tracking15contrib_feature15CvHaarEvaluator11FeatureHaar4evalERKNS_3MatENS_5Rect_IiEEPf(ptr noundef nonnull align 8 dereferenceable(136) %13, ptr noundef nonnull align 8 dereferenceable(96) %14, i64 %22, i64 %24, ptr noundef %7)
  %26 = load float, ptr %7, align 4, !tbaa !76
  call void @llvm.lifetime.end.p0(i64 4, ptr %7) #3
  ret float %26
}