; Function Attrs: mustprogress uwtable
define hidden noundef float @_ZN2cv6detail8tracking15contrib_feature15CvHaarEvaluatorclEii(ptr noundef nonnull readonly align 8 captures(none) dereferenceable(360) %0, i32 noundef %1, i32 %2) unnamed_addr #5 align 2 {
  %4 = getelementptr inbounds nuw i8, ptr %0, i64 240
  %5 = sext i32 %1 to i64
  %6 = getelementptr inbounds nuw i8, ptr %0, i64 248
  %7 = load ptr, ptr %6, align 8, !tbaa !125
  %8 = load ptr, ptr %4, align 8, !tbaa !124
  %9 = ptrtoint ptr %7 to i64
  %10 = ptrtoint ptr %8 to i64
  %11 = sub i64 %9, %10
  %12 = sdiv exact i64 %11, 136
  %.not.i.i = icmp ugt i64 %12, %5
  br i1 %.not.i.i, label %_ZNSt6vectorIN2cv6detail8tracking15contrib_feature15CvHaarEvaluator11FeatureHaarESaIS5_EE2atEm.exit, label %13

13:                                               ; preds = %3
  tail call void (ptr, ...) @_ZSt24__throw_out_of_range_fmtPKcz(ptr noundef nonnull @.str.34, i64 noundef %5, i64 noundef %12) #29
  unreachable

_ZNSt6vectorIN2cv6detail8tracking15contrib_feature15CvHaarEvaluator11FeatureHaarESaIS5_EE2atEm.exit: ; preds = %3
  %14 = getelementptr inbounds nuw %"class.cv::detail::tracking::contrib_feature::CvHaarEvaluator::FeatureHaar", ptr %8, i64 %5
  %15 = getelementptr inbounds nuw i8, ptr %0, i64 144
  %16 = getelementptr inbounds nuw i8, ptr %14, i64 4
  %17 = load i32, ptr %16, align 4, !tbaa !140
  %18 = icmp sgt i32 %17, 0
  br i1 %18, label %.lr.ph.i, label %_ZNK2cv6detail8tracking15contrib_feature15CvHaarEvaluator11FeatureHaar4evalERKNS_3MatENS_5Rect_IiEEPf.exit

.lr.ph.i:                                         ; preds = %_ZNSt6vectorIN2cv6detail8tracking15contrib_feature15CvHaarEvaluator11FeatureHaarESaIS5_EE2atEm.exit
  %19 = getelementptr inbounds nuw i8, ptr %14, i64 40
  %20 = load ptr, ptr %19, align 8, !tbaa !129
  %21 = getelementptr inbounds nuw i8, ptr %14, i64 112
  %22 = load ptr, ptr %21, align 8, !tbaa !126
  %wide.trip.count.i = zext nneg i32 %17 to i64
  br label %23

23:                                               ; preds = %23, %.lr.ph.i
  %indvars.iv.i = phi i64 [ 0, %.lr.ph.i ], [ %indvars.iv.next.i, %23 ]
  %24 = phi float [ 0.000000e+00, %.lr.ph.i ], [ %32, %23 ]
  %25 = getelementptr inbounds nuw %"class.cv::Rect_", ptr %20, i64 %indvars.iv.i
  %26 = load i64, ptr %25, align 4
  %27 = getelementptr inbounds nuw i8, ptr %25, i64 8
  %28 = load i64, ptr %27, align 4
  %29 = tail call noundef float @_ZNK2cv6detail8tracking15contrib_feature15CvHaarEvaluator11FeatureHaar6getSumERKNS_3MatENS_5Rect_IiEE(ptr nonnull readonly align 8 poison, ptr noundef nonnull readonly align 8 dereferenceable(96) %15, i64 %26, i64 %28)
  %30 = getelementptr inbounds nuw float, ptr %22, i64 %indvars.iv.i
  %31 = load float, ptr %30, align 4, !tbaa !87
  %32 = tail call float @llvm.fmuladd.f32(float %29, float %31, float %24)
  %indvars.iv.next.i = add nuw nsw i64 %indvars.iv.i, 1
  %exitcond.not.i = icmp eq i64 %indvars.iv.next.i, %wide.trip.count.i
  br i1 %exitcond.not.i, label %_ZNK2cv6detail8tracking15contrib_feature15CvHaarEvaluator11FeatureHaar4evalERKNS_3MatENS_5Rect_IiEEPf.exit, label %23, !llvm.loop !148

_ZNK2cv6detail8tracking15contrib_feature15CvHaarEvaluator11FeatureHaar4evalERKNS_3MatENS_5Rect_IiEEPf.exit: ; preds = %23, %_ZNSt6vectorIN2cv6detail8tracking15contrib_feature15CvHaarEvaluator11FeatureHaarESaIS5_EE2atEm.exit
  %.0 = phi float [ 0.000000e+00, %_ZNSt6vectorIN2cv6detail8tracking15contrib_feature15CvHaarEvaluator11FeatureHaarESaIS5_EE2atEm.exit ], [ %32, %23 ]
  ret float %.0
}